; Function Attrs: mustprogress uwtable
define void @_ZNK32pxrInternal_v0_24__pxrReserved__12GfColorSpace14ConvertRGBSpanERKS0_NS_6TfSpanIfEE(ptr noundef nonnull readonly align 8 captures(none) dereferenceable(16) %0, ptr noundef nonnull readonly align 8 captures(none) dereferenceable(16) %1, ptr %2, i64 %3) local_unnamed_addr #0 align 2 {
  %5 = alloca %"class.pxrInternal_v0_24__pxrReserved__::TfCallContext", align 8
  %6 = udiv i64 %3, 3
  %.not = icmp ugt i64 %3, 2
  %7 = mul nuw i64 %6, 3
  %.not4 = icmp eq i64 %7, %3
  %or.cond = select i1 %.not, i1 %.not4, i1 false
  br i1 %or.cond, label %13, label %8

8:                                                ; preds = %4
  store ptr @.str.21, ptr %5, align 8
  %9 = getelementptr inbounds nuw i8, ptr %5, i64 8
  store ptr @__func__._ZNK32pxrInternal_v0_24__pxrReserved__12GfColorSpace14ConvertRGBSpanERKS0_NS_6TfSpanIfEE, ptr %9, align 8
  %10 = getelementptr inbounds nuw i8, ptr %5, i64 16
  store i64 103, ptr %10, align 8
  %11 = getelementptr inbounds nuw i8, ptr %5, i64 24
  store ptr @__PRETTY_FUNCTION__._ZNK32pxrInternal_v0_24__pxrReserved__12GfColorSpace14ConvertRGBSpanERKS0_NS_6TfSpanIfEE, ptr %11, align 8
  %12 = getelementptr inbounds nuw i8, ptr %5, i64 32
  store i8 0, ptr %12, align 8
  call void (ptr, i32, ptr, ...) @_ZN32pxrInternal_v0_24__pxrReserved__18Tf_PostErrorHelperERKNS_13TfCallContextENS_16TfDiagnosticTypeEPKcz(ptr noundef nonnull align 8 dereferenceable(33) %5, i32 noundef 1, ptr noundef nonnull @.str.22)
  br label %19

13:                                               ; preds = %4
  %14 = load ptr, ptr %1, align 8
  %15 = load ptr, ptr %14, align 8
  %16 = load ptr, ptr %0, align 8
  %17 = load ptr, ptr %16, align 8
  %sext = shl i64 %6, 32
  %18 = ashr exact i64 %sext, 32
  tail call void @pxr_nc_1_0_TransformColors(ptr noundef %15, ptr noundef %17, ptr noundef %2, i64 noundef %18)
  br label %19

19:                                               ; preds = %13, %8
  ret void
}